target datalayout = "e-m:e-p270:32:32-p271:32:32-p272:64:64-i64:64-i128:128-f80:128-n8:16:32:64-S128"
target triple = "x86_64-pc-linux-gnu"

%struct.FuncState = type { ptr, ptr, ptr, ptr, ptr, ptr, i32, i32, i32, i32, i32, i32, i16, i8, [60 x %struct.upvaldesc], [200 x i16] }
%struct.upvaldesc = type { i8, i8 }
%struct.Proto = type { ptr, i8, i8, ptr, ptr, ptr, ptr, ptr, ptr, ptr, i32, i32, i32, i32, i32, i32, i32, i32, ptr, i8, i8, i8, i8 }
%struct.lua_TValue = type { %union.Value, i32 }
%union.Value = type { ptr }
%struct.GCheader = type { ptr, i8, i8 }

@.str.2 = private unnamed_addr constant [24 x i8] c"constant table overflow\00", align 1

; Function Attrs: nounwind uwtable
define internal i32 @addk(ptr noundef %0, ptr noundef %1, ptr noundef %2) #0 {
  %4 = alloca i32, align 4
  %5 = alloca ptr, align 8
  %6 = alloca ptr, align 8
  %7 = alloca ptr, align 8
  %8 = alloca ptr, align 8
  %9 = alloca ptr, align 8
  %10 = alloca ptr, align 8
  %11 = alloca i32, align 4
  %12 = alloca i32, align 4
  %13 = alloca ptr, align 8
  %14 = alloca ptr, align 8
  %15 = alloca ptr, align 8
  store ptr %0, ptr %5, align 8, !tbaa !4
  store ptr %1, ptr %6, align 8, !tbaa !45
  store ptr %2, ptr %7, align 8, !tbaa !45
  call void @llvm.lifetime.start.p0(i64 8, ptr %8) #6
  %16 = load ptr, ptr %5, align 8, !tbaa !4
  %17 = getelementptr inbounds nuw %struct.FuncState, ptr %16, i32 0, i32 4
  %18 = load ptr, ptr %17, align 8, !tbaa !49
  store ptr %18, ptr %8, align 8, !tbaa !50
  call void @llvm.lifetime.start.p0(i64 8, ptr %9) #6
  %19 = load ptr, ptr %8, align 8, !tbaa !50
  %20 = load ptr, ptr %5, align 8, !tbaa !4
  %21 = getelementptr inbounds nuw %struct.FuncState, ptr %20, i32 0, i32 1
  %22 = load ptr, ptr %21, align 8, !tbaa !51
  %23 = load ptr, ptr %6, align 8, !tbaa !45
  %24 = call ptr @luaH_set(ptr noundef %19, ptr noundef %22, ptr noundef %23)
  store ptr %24, ptr %9, align 8, !tbaa !45
  call void @llvm.lifetime.start.p0(i64 8, ptr %10) #6
  %25 = load ptr, ptr %5, align 8, !tbaa !4
  %26 = getelementptr inbounds nuw %struct.FuncState, ptr %25, i32 0, i32 0
  %27 = load ptr, ptr %26, align 8, !tbaa !21
  store ptr %27, ptr %10, align 8, !tbaa !52
  call void @llvm.lifetime.start.p0(i64 4, ptr %11) #6
  %28 = load ptr, ptr %10, align 8, !tbaa !52
  %29 = getelementptr inbounds nuw %struct.Proto, ptr %28, i32 0, i32 11
  %30 = load i32, ptr %29, align 4, !tbaa !53
  store i32 %30, ptr %11, align 4, !tbaa !9
  %31 = load ptr, ptr %9, align 8, !tbaa !45
  %32 = getelementptr inbounds nuw %struct.lua_TValue, ptr %31, i32 0, i32 1
  %33 = load i32, ptr %32, align 8, !tbaa !47
  %34 = icmp eq i32 %33, 3
  br i1 %34, label %35, label %40

35:                                               ; preds = %3
  %36 = load ptr, ptr %9, align 8, !tbaa !45
  %37 = getelementptr inbounds nuw %struct.lua_TValue, ptr %36, i32 0, i32 0
  %38 = load double, ptr %37, align 8, !tbaa !46
  %39 = fptosi double %38 to i32
  store i32 %39, ptr %4, align 4
  store i32 1, ptr %12, align 4
  br label %134

40:                                               ; preds = %3
  call void @llvm.lifetime.start.p0(i64 8, ptr %13) #6
  %41 = load ptr, ptr %9, align 8, !tbaa !45
  store ptr %41, ptr %13, align 8, !tbaa !45
  %42 = load ptr, ptr %5, align 8, !tbaa !4
  %43 = getelementptr inbounds nuw %struct.FuncState, ptr %42, i32 0, i32 10
  %44 = load i32, ptr %43, align 8, !tbaa !54
  %45 = sitofp i32 %44 to double
  %46 = load ptr, ptr %13, align 8, !tbaa !45
  %47 = getelementptr inbounds nuw %struct.lua_TValue, ptr %46, i32 0, i32 0
  store double %45, ptr %47, align 8, !tbaa !46
  %48 = load ptr, ptr %13, align 8, !tbaa !45
  %49 = getelementptr inbounds nuw %struct.lua_TValue, ptr %48, i32 0, i32 1
  store i32 3, ptr %49, align 8, !tbaa !47
  call void @llvm.lifetime.end.p0(i64 8, ptr %13) #6
  %50 = load ptr, ptr %5, align 8, !tbaa !4
  %51 = getelementptr inbounds nuw %struct.FuncState, ptr %50, i32 0, i32 10
  %52 = load i32, ptr %51, align 8, !tbaa !54
  %53 = add nsw i32 %52, 1
  %54 = load ptr, ptr %10, align 8, !tbaa !52
  %55 = getelementptr inbounds nuw %struct.Proto, ptr %54, i32 0, i32 11
  %56 = load i32, ptr %55, align 4, !tbaa !53
  %57 = icmp sgt i32 %53, %56
  br i1 %57, label %58, label %68

58:                                               ; preds = %40
  %59 = load ptr, ptr %8, align 8, !tbaa !50
  %60 = load ptr, ptr %10, align 8, !tbaa !52
  %61 = getelementptr inbounds nuw %struct.Proto, ptr %60, i32 0, i32 3
  %62 = load ptr, ptr %61, align 8, !tbaa !55
  %63 = load ptr, ptr %10, align 8, !tbaa !52
  %64 = getelementptr inbounds nuw %struct.Proto, ptr %63, i32 0, i32 11
  %65 = call ptr @luaM_growaux_(ptr noundef %59, ptr noundef %62, ptr noundef %64, i64 noundef 16, i32 noundef 262143, ptr noundef @.str.2)
  %66 = load ptr, ptr %10, align 8, !tbaa !52
  %67 = getelementptr inbounds nuw %struct.Proto, ptr %66, i32 0, i32 3
  store ptr %65, ptr %67, align 8, !tbaa !55
  br label %68

68:                                               ; preds = %58, %40
  br label %69

69:                                               ; preds = %75, %68
  %70 = load i32, ptr %11, align 4, !tbaa !9
  %71 = load ptr, ptr %10, align 8, !tbaa !52
  %72 = getelementptr inbounds nuw %struct.Proto, ptr %71, i32 0, i32 11
  %73 = load i32, ptr %72, align 4, !tbaa !53
  %74 = icmp slt i32 %70, %73
  br i1 %74, label %75, label %84

75:                                               ; preds = %69
  %76 = load ptr, ptr %10, align 8, !tbaa !52
  %77 = getelementptr inbounds nuw %struct.Proto, ptr %76, i32 0, i32 3
  %78 = load ptr, ptr %77, align 8, !tbaa !55
  %79 = load i32, ptr %11, align 4, !tbaa !9
  %80 = add nsw i32 %79, 1
  store i32 %80, ptr %11, align 4, !tbaa !9
  %81 = sext i32 %79 to i64
  %82 = getelementptr inbounds %struct.lua_TValue, ptr %78, i64 %81
  %83 = getelementptr inbounds nuw %struct.lua_TValue, ptr %82, i32 0, i32 1
  store i32 0, ptr %83, align 8, !tbaa !47
  br label %69, !llvm.loop !56

84:                                               ; preds = %69
  call void @llvm.lifetime.start.p0(i64 8, ptr %14) #6
  %85 = load ptr, ptr %7, align 8, !tbaa !45
  store ptr %85, ptr %14, align 8, !tbaa !45
  call void @llvm.lifetime.start.p0(i64 8, ptr %15) #6
  %86 = load ptr, ptr %10, align 8, !tbaa !52
  %87 = getelementptr inbounds nuw %struct.Proto, ptr %86, i32 0, i32 3
  %88 = load ptr, ptr %87, align 8, !tbaa !55
  %89 = load ptr, ptr %5, align 8, !tbaa !4
  %90 = getelementptr inbounds nuw %struct.FuncState, ptr %89, i32 0, i32 10
  %91 = load i32, ptr %90, align 8, !tbaa !54
  %92 = sext i32 %91 to i64
  %93 = getelementptr inbounds %struct.lua_TValue, ptr %88, i64 %92
  store ptr %93, ptr %15, align 8, !tbaa !45
  %94 = load ptr, ptr %15, align 8, !tbaa !45
  %95 = getelementptr inbounds nuw %struct.lua_TValue, ptr %94, i32 0, i32 0
  %96 = load ptr, ptr %14, align 8, !tbaa !45
  %97 = getelementptr inbounds nuw %struct.lua_TValue, ptr %96, i32 0, i32 0
  call void @llvm.memcpy.p0.p0.i64(ptr align 8 %95, ptr align 8 %97, i64 8, i1 false), !tbaa.struct !57
  %98 = load ptr, ptr %14, align 8, !tbaa !45
  %99 = getelementptr inbounds nuw %struct.lua_TValue, ptr %98, i32 0, i32 1
  %100 = load i32, ptr %99, align 8, !tbaa !47
  %101 = load ptr, ptr %15, align 8, !tbaa !45
  %102 = getelementptr inbounds nuw %struct.lua_TValue, ptr %101, i32 0, i32 1
  store i32 %100, ptr %102, align 8, !tbaa !47
  call void @llvm.lifetime.end.p0(i64 8, ptr %15) #6
  call void @llvm.lifetime.end.p0(i64 8, ptr %14) #6
  %103 = load ptr, ptr %7, align 8, !tbaa !45
  %104 = getelementptr inbounds nuw %struct.lua_TValue, ptr %103, i32 0, i32 1
  %105 = load i32, ptr %104, align 8, !tbaa !47
  %106 = icmp sge i32 %105, 4
  br i1 %106, label %107, label %129

107:                                              ; preds = %84
  %108 = load ptr, ptr %7, align 8, !tbaa !45
  %109 = getelementptr inbounds nuw %struct.lua_TValue, ptr %108, i32 0, i32 0
  %110 = load ptr, ptr %109, align 8, !tbaa !46
  %111 = getelementptr inbounds nuw %struct.GCheader, ptr %110, i32 0, i32 2
  %112 = load i8, ptr %111, align 1, !tbaa !46
  %113 = zext i8 %112 to i32
  %114 = and i32 %113, 3
  %115 = icmp ne i32 %114, 0
  br i1 %115, label %116, label %129

116:                                              ; preds = %107
  %117 = load ptr, ptr %10, align 8, !tbaa !52
  %118 = getelementptr inbounds nuw %struct.GCheader, ptr %117, i32 0, i32 2
  %119 = load i8, ptr %118, align 1, !tbaa !46
  %120 = zext i8 %119 to i32
  %121 = and i32 %120, 4
  %122 = icmp ne i32 %121, 0
  br i1 %122, label %123, label %129

123:                                              ; preds = %116
  %124 = load ptr, ptr %8, align 8, !tbaa !50
  %125 = load ptr, ptr %10, align 8, !tbaa !52
  %126 = load ptr, ptr %7, align 8, !tbaa !45
  %127 = getelementptr inbounds nuw %struct.lua_TValue, ptr %126, i32 0, i32 0
  %128 = load ptr, ptr %127, align 8, !tbaa !46
  call void @luaC_barrierf(ptr noundef %124, ptr noundef %125, ptr noundef %128)
  br label %129

129:                                              ; preds = %123, %116, %107, %84
  %130 = load ptr, ptr %5, align 8, !tbaa !4
  %131 = getelementptr inbounds nuw %struct.FuncState, ptr %130, i32 0, i32 10
  %132 = load i32, ptr %131, align 8, !tbaa !54
  %133 = add nsw i32 %132, 1
  store i32 %133, ptr %131, align 8, !tbaa !54
  store i32 %132, ptr %4, align 4
  store i32 1, ptr %12, align 4
  br label %134

134:                                              ; preds = %129, %35
  call void @llvm.lifetime.end.p0(i64 4, ptr %11) #6
  call void @llvm.lifetime.end.p0(i64 8, ptr %10) #6
  call void @llvm.lifetime.end.p0(i64 8, ptr %9) #6
  call void @llvm.lifetime.end.p0(i64 8, ptr %8) #6
  %135 = load i32, ptr %4, align 4
  ret i32 %135
}