; Function Attrs: nounwind uwtable
define internal fastcc i32 @addk(ptr noundef captures(none) %0, ptr noundef nonnull %1, ptr noundef nonnull readonly captures(none) %2) unnamed_addr #0 {
  %4 = getelementptr inbounds nuw i8, ptr %0, i64 32
  %5 = load ptr, ptr %4, align 8, !tbaa !45
  %6 = getelementptr inbounds nuw i8, ptr %0, i64 8
  %7 = load ptr, ptr %6, align 8, !tbaa !46
  %8 = tail call ptr @luaH_set(ptr noundef %5, ptr noundef %7, ptr noundef nonnull %1) #8
  %9 = load ptr, ptr %0, align 8, !tbaa !19
  %10 = getelementptr inbounds nuw i8, ptr %9, i64 76
  %11 = load i32, ptr %10, align 4, !tbaa !47
  %12 = getelementptr inbounds nuw i8, ptr %8, i64 8
  %13 = load i32, ptr %12, align 8, !tbaa !43
  %14 = icmp eq i32 %13, 3
  br i1 %14, label %15, label %18

15:                                               ; preds = %3
  %16 = load double, ptr %8, align 8, !tbaa !39
  %17 = fptosi double %16 to i32
  br label %57

18:                                               ; preds = %3
  %19 = getelementptr inbounds nuw i8, ptr %0, i64 64
  %20 = load i32, ptr %19, align 8, !tbaa !48
  %21 = sitofp i32 %20 to double
  store double %21, ptr %8, align 8, !tbaa !39
  store i32 3, ptr %12, align 8, !tbaa !43
  %22 = load i32, ptr %19, align 8, !tbaa !48
  %23 = load i32, ptr %10, align 4, !tbaa !47
  %.not = icmp slt i32 %22, %23
  br i1 %.not, label %28, label %24

24:                                               ; preds = %18
  %25 = getelementptr inbounds nuw i8, ptr %9, i64 16
  %26 = load ptr, ptr %25, align 8, !tbaa !49
  %27 = tail call ptr @luaM_growaux_(ptr noundef %5, ptr noundef %26, ptr noundef nonnull %10, i64 noundef 16, i32 noundef 262143, ptr noundef nonnull @.str.2) #8
  store ptr %27, ptr %25, align 8, !tbaa !49
  %.pre = load i32, ptr %10, align 4, !tbaa !47
  br label %28

28:                                               ; preds = %24, %18
  %29 = phi i32 [ %.pre, %24 ], [ %23, %18 ]
  %30 = icmp slt i32 %11, %29
  %31 = getelementptr inbounds nuw i8, ptr %9, i64 16
  %32 = load ptr, ptr %31, align 8, !tbaa !49
  br i1 %30, label %.lr.ph, label %._crit_edge

.lr.ph:                                           ; preds = %28
  %33 = sext i32 %11 to i64
  %wide.trip.count = sext i32 %29 to i64
  br label %34

34:                                               ; preds = %.lr.ph, %34
  %indvars.iv = phi i64 [ %33, %.lr.ph ], [ %indvars.iv.next, %34 ]
  %indvars.iv.next = add nsw i64 %indvars.iv, 1
  %35 = getelementptr inbounds %struct.lua_TValue, ptr %32, i64 %indvars.iv, i32 1
  store i32 0, ptr %35, align 8, !tbaa !43
  %exitcond.not = icmp eq i64 %indvars.iv.next, %wide.trip.count
  br i1 %exitcond.not, label %._crit_edge, label %34, !llvm.loop !50

._crit_edge:                                      ; preds = %34, %28
  %36 = load i32, ptr %19, align 8, !tbaa !48
  %37 = sext i32 %36 to i64
  %38 = getelementptr inbounds %struct.lua_TValue, ptr %32, i64 %37
  %39 = load i64, ptr %2, align 8, !tbaa !39
  store i64 %39, ptr %38, align 8, !tbaa !39
  %40 = getelementptr inbounds nuw i8, ptr %2, i64 8
  %41 = load i32, ptr %40, align 8, !tbaa !43
  %42 = getelementptr inbounds nuw i8, ptr %38, i64 8
  store i32 %41, ptr %42, align 8, !tbaa !43
  %43 = icmp sgt i32 %41, 3
  br i1 %43, label %44, label %54

44:                                               ; preds = %._crit_edge
  %45 = load ptr, ptr %2, align 8, !tbaa !39
  %46 = getelementptr inbounds nuw i8, ptr %45, i64 9
  %47 = load i8, ptr %46, align 1, !tbaa !39
  %48 = and i8 %47, 3
  %.not37 = icmp eq i8 %48, 0
  br i1 %.not37, label %54, label %49

49:                                               ; preds = %44
  %50 = getelementptr inbounds nuw i8, ptr %9, i64 9
  %51 = load i8, ptr %50, align 1, !tbaa !39
  %52 = and i8 %51, 4
  %.not38 = icmp eq i8 %52, 0
  br i1 %.not38, label %54, label %53

53:                                               ; preds = %49
  tail call void @luaC_barrierf(ptr noundef %5, ptr noundef nonnull %9, ptr noundef nonnull %45) #8
  br label %54

54:                                               ; preds = %53, %49, %44, %._crit_edge
  %55 = load i32, ptr %19, align 8, !tbaa !48
  %56 = add nsw i32 %55, 1
  store i32 %56, ptr %19, align 8, !tbaa !48
  br label %57

57:                                               ; preds = %54, %15
  %.0 = phi i32 [ %17, %15 ], [ %55, %54 ]
  ret i32 %.0
}